target datalayout = "e-m:e-p270:32:32-p271:32:32-p272:64:64-i64:64-i128:128-f80:128-n8:16:32:64-S128"
target triple = "x86_64-pc-linux-gnu"

@stderr = external global ptr, align 8
@g_lz4c_legacy_commands = internal global i32 0, align 4
@.str.28 = private unnamed_addr constant [33 x i8] c"*** %s v%s %i-bit %s, by %s ***\0A\00", align 1
@.str.29 = private unnamed_addr constant [4 x i8] c"lz4\00", align 1
@.str.30 = private unnamed_addr constant [14 x i8] c"single-thread\00", align 1
@.str.31 = private unnamed_addr constant [12 x i8] c"Yann Collet\00", align 1
@.str.69 = private unnamed_addr constant [2 x i8] c"\0A\00", align 1
@.str.70 = private unnamed_addr constant [22 x i8] c"Advanced arguments :\0A\00", align 1
@.str.71 = private unnamed_addr constant [44 x i8] c" -V     : display Version number and exit \0A\00", align 1
@.str.72 = private unnamed_addr constant [25 x i8] c" -v     : verbose mode \0A\00", align 1
@.str.73 = private unnamed_addr constant [67 x i8] c" -q     : suppress warnings; specify twice to suppress errors too\0A\00", align 1
@.str.74 = private unnamed_addr constant [69 x i8] c" -c     : force write to standard output, even if it is the console\0A\00", align 1
@.str.75 = private unnamed_addr constant [42 x i8] c" -t     : test compressed file integrity\0A\00", align 1
@.str.76 = private unnamed_addr constant [69 x i8] c" -m     : multiple input files (implies automatic output filenames)\0A\00", align 1
@.str.77 = private unnamed_addr constant [62 x i8] c" -r     : operate recursively on directories (sets also -m) \0A\00", align 1
@.str.78 = private unnamed_addr constant [67 x i8] c" -l     : compress using Legacy format (Linux kernel compression)\0A\00", align 1
@.str.79 = private unnamed_addr constant [30 x i8] c" -z     : force compression \0A\00", align 1
@.str.80 = private unnamed_addr constant [64 x i8] c" -D FILE: use FILE as dictionary (compression & decompression)\0A\00", align 1
@.str.81 = private unnamed_addr constant [55 x i8] c" -B#    : cut file into blocks of size # bytes [32+] \0A\00", align 1
@.str.82 = private unnamed_addr constant [68 x i8] c"                     or predefined block size [4-7] (default: %i) \0A\00", align 1
@.str.83 = private unnamed_addr constant [41 x i8] c" -BI    : Block Independence (default) \0A\00", align 1
@.str.84 = private unnamed_addr constant [58 x i8] c" -BD    : Block dependency (improves compression ratio) \0A\00", align 1
@.str.85 = private unnamed_addr constant [53 x i8] c" -BX    : enable block checksum (default:disabled) \0A\00", align 1
@.str.86 = private unnamed_addr constant [61 x i8] c"--no-frame-crc : disable stream checksum (default:enabled) \0A\00", align 1
@.str.87 = private unnamed_addr constant [80 x i8] c"--content-size : compressed frame includes original size (default:not present)\0A\00", align 1
@.str.88 = private unnamed_addr constant [105 x i8] c"--list FILE : lists information about .lz4 files (useful for files compressed with --content-size flag)\0A\00", align 1
@.str.89 = private unnamed_addr constant [76 x i8] c"--[no-]sparse  : sparse mode (default:enabled on file, disabled on stdout)\0A\00", align 1
@.str.90 = private unnamed_addr constant [80 x i8] c"--favor-decSpeed: compressed files decompress faster, but are less compressed \0A\00", align 1
@.str.91 = private unnamed_addr constant [66 x i8] c"--fast[=#]: switch to ultra fast compression level (default: %i)\0A\00", align 1
@.str.92 = private unnamed_addr constant [23 x i8] c"--best  : same as -%d\0A\00", align 1
@.str.93 = private unnamed_addr constant [24 x i8] c"Benchmark arguments : \0A\00", align 1
@.str.94 = private unnamed_addr constant [71 x i8] c" -b#    : benchmark file(s), using # compression level (default : 1) \0A\00", align 1
@.str.95 = private unnamed_addr constant [67 x i8] c" -e#    : test all compression levels from -bX to # (default : 1)\0A\00", align 1
@.str.96 = private unnamed_addr constant [62 x i8] c" -i#    : minimum evaluation time in seconds (default : 3s) \0A\00", align 1
@.str.97 = private unnamed_addr constant [21 x i8] c"Legacy arguments : \0A\00", align 1
@.str.98 = private unnamed_addr constant [29 x i8] c" -c0    : fast compression \0A\00", align 1
@.str.99 = private unnamed_addr constant [29 x i8] c" -c1    : high compression \0A\00", align 1
@.str.100 = private unnamed_addr constant [34 x i8] c" -c2,-hc: very high compression \0A\00", align 1
@.str.101 = private unnamed_addr constant [47 x i8] c" -y     : overwrite output without prompting \0A\00", align 1

; Function Attrs: nounwind uwtable
define internal i32 @usage_advanced(ptr noundef %0) #0 {
  %2 = alloca ptr, align 8
  store ptr %0, ptr %2, align 8, !tbaa !11
  %3 = load ptr, ptr @stderr, align 8, !tbaa !17
  %4 = call ptr @LZ4_versionString()
  %5 = call i32 (ptr, ptr, ...) @fprintf(ptr noundef %3, ptr noundef @.str.28, ptr noundef @.str.29, ptr noundef %4, i32 noundef 64, ptr noundef @.str.30, ptr noundef @.str.31) #12
  %6 = load ptr, ptr %2, align 8, !tbaa !11
  %7 = call i32 @usage(ptr noundef %6)
  %8 = load ptr, ptr @stderr, align 8, !tbaa !17
  %9 = call i32 (ptr, ptr, ...) @fprintf(ptr noundef %8, ptr noundef @.str.69) #12
  %10 = load ptr, ptr @stderr, align 8, !tbaa !17
  %11 = call i32 (ptr, ptr, ...) @fprintf(ptr noundef %10, ptr noundef @.str.70) #12
  %12 = load ptr, ptr @stderr, align 8, !tbaa !17
  %13 = call i32 (ptr, ptr, ...) @fprintf(ptr noundef %12, ptr noundef @.str.71) #12
  %14 = load ptr, ptr @stderr, align 8, !tbaa !17
  %15 = call i32 (ptr, ptr, ...) @fprintf(ptr noundef %14, ptr noundef @.str.72) #12
  %16 = load ptr, ptr @stderr, align 8, !tbaa !17
  %17 = call i32 (ptr, ptr, ...) @fprintf(ptr noundef %16, ptr noundef @.str.73) #12
  %18 = load ptr, ptr @stderr, align 8, !tbaa !17
  %19 = call i32 (ptr, ptr, ...) @fprintf(ptr noundef %18, ptr noundef @.str.74) #12
  %20 = load ptr, ptr @stderr, align 8, !tbaa !17
  %21 = call i32 (ptr, ptr, ...) @fprintf(ptr noundef %20, ptr noundef @.str.75) #12
  %22 = load ptr, ptr @stderr, align 8, !tbaa !17
  %23 = call i32 (ptr, ptr, ...) @fprintf(ptr noundef %22, ptr noundef @.str.76) #12
  %24 = load ptr, ptr @stderr, align 8, !tbaa !17
  %25 = call i32 (ptr, ptr, ...) @fprintf(ptr noundef %24, ptr noundef @.str.77) #12
  %26 = load ptr, ptr @stderr, align 8, !tbaa !17
  %27 = call i32 (ptr, ptr, ...) @fprintf(ptr noundef %26, ptr noundef @.str.78) #12
  %28 = load ptr, ptr @stderr, align 8, !tbaa !17
  %29 = call i32 (ptr, ptr, ...) @fprintf(ptr noundef %28, ptr noundef @.str.79) #12
  %30 = load ptr, ptr @stderr, align 8, !tbaa !17
  %31 = call i32 (ptr, ptr, ...) @fprintf(ptr noundef %30, ptr noundef @.str.80) #12
  %32 = load ptr, ptr @stderr, align 8, !tbaa !17
  %33 = call i32 (ptr, ptr, ...) @fprintf(ptr noundef %32, ptr noundef @.str.81) #12
  %34 = load ptr, ptr @stderr, align 8, !tbaa !17
  %35 = call i32 (ptr, ptr, ...) @fprintf(ptr noundef %34, ptr noundef @.str.82, i32 noundef 7) #12
  %36 = load ptr, ptr @stderr, align 8, !tbaa !17
  %37 = call i32 (ptr, ptr, ...) @fprintf(ptr noundef %36, ptr noundef @.str.83) #12
  %38 = load ptr, ptr @stderr, align 8, !tbaa !17
  %39 = call i32 (ptr, ptr, ...) @fprintf(ptr noundef %38, ptr noundef @.str.84) #12
  %40 = load ptr, ptr @stderr, align 8, !tbaa !17
  %41 = call i32 (ptr, ptr, ...) @fprintf(ptr noundef %40, ptr noundef @.str.85) #12
  %42 = load ptr, ptr @stderr, align 8, !tbaa !17
  %43 = call i32 (ptr, ptr, ...) @fprintf(ptr noundef %42, ptr noundef @.str.86) #12
  %44 = load ptr, ptr @stderr, align 8, !tbaa !17
  %45 = call i32 (ptr, ptr, ...) @fprintf(ptr noundef %44, ptr noundef @.str.87) #12
  %46 = load ptr, ptr @stderr, align 8, !tbaa !17
  %47 = call i32 (ptr, ptr, ...) @fprintf(ptr noundef %46, ptr noundef @.str.88) #12
  %48 = load ptr, ptr @stderr, align 8, !tbaa !17
  %49 = call i32 (ptr, ptr, ...) @fprintf(ptr noundef %48, ptr noundef @.str.89) #12
  %50 = load ptr, ptr @stderr, align 8, !tbaa !17
  %51 = call i32 (ptr, ptr, ...) @fprintf(ptr noundef %50, ptr noundef @.str.90) #12
  %52 = load ptr, ptr @stderr, align 8, !tbaa !17
  %53 = call i32 (ptr, ptr, ...) @fprintf(ptr noundef %52, ptr noundef @.str.91, i32 noundef 1) #12
  %54 = load ptr, ptr @stderr, align 8, !tbaa !17
  %55 = call i32 (ptr, ptr, ...) @fprintf(ptr noundef %54, ptr noundef @.str.92, i32 noundef 12) #12
  %56 = load ptr, ptr @stderr, align 8, !tbaa !17
  %57 = call i32 (ptr, ptr, ...) @fprintf(ptr noundef %56, ptr noundef @.str.93) #12
  %58 = load ptr, ptr @stderr, align 8, !tbaa !17
  %59 = call i32 (ptr, ptr, ...) @fprintf(ptr noundef %58, ptr noundef @.str.94) #12
  %60 = load ptr, ptr @stderr, align 8, !tbaa !17
  %61 = call i32 (ptr, ptr, ...) @fprintf(ptr noundef %60, ptr noundef @.str.95) #12
  %62 = load ptr, ptr @stderr, align 8, !tbaa !17
  %63 = call i32 (ptr, ptr, ...) @fprintf(ptr noundef %62, ptr noundef @.str.96) #12
  %64 = load i32, ptr @g_lz4c_legacy_commands, align 4, !tbaa !4
  %65 = icmp ne i32 %64, 0
  br i1 %65, label %66, label %77

66:                                               ; preds = %1
  %67 = load ptr, ptr @stderr, align 8, !tbaa !17
  %68 = call i32 (ptr, ptr, ...) @fprintf(ptr noundef %67, ptr noundef @.str.97) #12
  %69 = load ptr, ptr @stderr, align 8, !tbaa !17
  %70 = call i32 (ptr, ptr, ...) @fprintf(ptr noundef %69, ptr noundef @.str.98) #12
  %71 = load ptr, ptr @stderr, align 8, !tbaa !17
  %72 = call i32 (ptr, ptr, ...) @fprintf(ptr noundef %71, ptr noundef @.str.99) #12
  %73 = load ptr, ptr @stderr, align 8, !tbaa !17
  %74 = call i32 (ptr, ptr, ...) @fprintf(ptr noundef %73, ptr noundef @.str.100) #12
  %75 = load ptr, ptr @stderr, align 8, !tbaa !17
  %76 = call i32 (ptr, ptr, ...) @fprintf(ptr noundef %75, ptr noundef @.str.101) #12
  br label %77

77:                                               ; preds = %66, %1
  ret i32 0
}