; Function Attrs: cold nounwind uwtable
define internal fastcc void @usage_advanced(ptr noundef %0) unnamed_addr #7 {
  %2 = load ptr, ptr @stderr, align 8, !tbaa !11
  %3 = tail call ptr @LZ4_versionString() #22
  %4 = tail call i32 (ptr, ptr, ...) @fprintf(ptr noundef %2, ptr noundef nonnull @.str.28, ptr noundef nonnull @.str.29, ptr noundef %3, i32 noundef 64, ptr noundef nonnull @.str.30, ptr noundef nonnull @.str.31) #23
  tail call fastcc void @usage(ptr noundef %0)
  %5 = load ptr, ptr @stderr, align 8, !tbaa !11
  %fputc = tail call i32 @fputc(i32 10, ptr %5)
  %6 = load ptr, ptr @stderr, align 8, !tbaa !11
  %7 = tail call i64 @fwrite(ptr nonnull @.str.70, i64 21, i64 1, ptr %6) #26
  %8 = load ptr, ptr @stderr, align 8, !tbaa !11
  %9 = tail call i64 @fwrite(ptr nonnull @.str.71, i64 43, i64 1, ptr %8) #26
  %10 = load ptr, ptr @stderr, align 8, !tbaa !11
  %11 = tail call i64 @fwrite(ptr nonnull @.str.72, i64 24, i64 1, ptr %10) #26
  %12 = load ptr, ptr @stderr, align 8, !tbaa !11
  %13 = tail call i64 @fwrite(ptr nonnull @.str.73, i64 66, i64 1, ptr %12) #26
  %14 = load ptr, ptr @stderr, align 8, !tbaa !11
  %15 = tail call i64 @fwrite(ptr nonnull @.str.74, i64 68, i64 1, ptr %14) #26
  %16 = load ptr, ptr @stderr, align 8, !tbaa !11
  %17 = tail call i64 @fwrite(ptr nonnull @.str.75, i64 41, i64 1, ptr %16) #26
  %18 = load ptr, ptr @stderr, align 8, !tbaa !11
  %19 = tail call i64 @fwrite(ptr nonnull @.str.76, i64 68, i64 1, ptr %18) #26
  %20 = load ptr, ptr @stderr, align 8, !tbaa !11
  %21 = tail call i64 @fwrite(ptr nonnull @.str.77, i64 61, i64 1, ptr %20) #26
  %22 = load ptr, ptr @stderr, align 8, !tbaa !11
  %23 = tail call i64 @fwrite(ptr nonnull @.str.78, i64 66, i64 1, ptr %22) #26
  %24 = load ptr, ptr @stderr, align 8, !tbaa !11
  %25 = tail call i64 @fwrite(ptr nonnull @.str.79, i64 29, i64 1, ptr %24) #26
  %26 = load ptr, ptr @stderr, align 8, !tbaa !11
  %27 = tail call i64 @fwrite(ptr nonnull @.str.80, i64 63, i64 1, ptr %26) #26
  %28 = load ptr, ptr @stderr, align 8, !tbaa !11
  %29 = tail call i64 @fwrite(ptr nonnull @.str.81, i64 54, i64 1, ptr %28) #26
  %30 = load ptr, ptr @stderr, align 8, !tbaa !11
  %31 = tail call i32 (ptr, ptr, ...) @fprintf(ptr noundef %30, ptr noundef nonnull @.str.82, i32 noundef 7) #23
  %32 = load ptr, ptr @stderr, align 8, !tbaa !11
  %33 = tail call i64 @fwrite(ptr nonnull @.str.83, i64 40, i64 1, ptr %32) #26
  %34 = load ptr, ptr @stderr, align 8, !tbaa !11
  %35 = tail call i64 @fwrite(ptr nonnull @.str.84, i64 57, i64 1, ptr %34) #26
  %36 = load ptr, ptr @stderr, align 8, !tbaa !11
  %37 = tail call i64 @fwrite(ptr nonnull @.str.85, i64 52, i64 1, ptr %36) #26
  %38 = load ptr, ptr @stderr, align 8, !tbaa !11
  %39 = tail call i64 @fwrite(ptr nonnull @.str.86, i64 60, i64 1, ptr %38) #26
  %40 = load ptr, ptr @stderr, align 8, !tbaa !11
  %41 = tail call i64 @fwrite(ptr nonnull @.str.87, i64 79, i64 1, ptr %40) #26
  %42 = load ptr, ptr @stderr, align 8, !tbaa !11
  %43 = tail call i64 @fwrite(ptr nonnull @.str.88, i64 104, i64 1, ptr %42) #26
  %44 = load ptr, ptr @stderr, align 8, !tbaa !11
  %45 = tail call i64 @fwrite(ptr nonnull @.str.89, i64 75, i64 1, ptr %44) #26
  %46 = load ptr, ptr @stderr, align 8, !tbaa !11
  %47 = tail call i64 @fwrite(ptr nonnull @.str.90, i64 79, i64 1, ptr %46) #26
  %48 = load ptr, ptr @stderr, align 8, !tbaa !11
  %49 = tail call i32 (ptr, ptr, ...) @fprintf(ptr noundef %48, ptr noundef nonnull @.str.91, i32 noundef 1) #23
  %50 = load ptr, ptr @stderr, align 8, !tbaa !11
  %51 = tail call i32 (ptr, ptr, ...) @fprintf(ptr noundef %50, ptr noundef nonnull @.str.92, i32 noundef 12) #23
  %52 = load ptr, ptr @stderr, align 8, !tbaa !11
  %53 = tail call i64 @fwrite(ptr nonnull @.str.93, i64 23, i64 1, ptr %52) #26
  %54 = load ptr, ptr @stderr, align 8, !tbaa !11
  %55 = tail call i64 @fwrite(ptr nonnull @.str.94, i64 70, i64 1, ptr %54) #26
  %56 = load ptr, ptr @stderr, align 8, !tbaa !11
  %57 = tail call i64 @fwrite(ptr nonnull @.str.95, i64 66, i64 1, ptr %56) #26
  %58 = load ptr, ptr @stderr, align 8, !tbaa !11
  %59 = tail call i64 @fwrite(ptr nonnull @.str.96, i64 61, i64 1, ptr %58) #26
  %.b = load i1, ptr @g_lz4c_legacy_commands, align 4
  br i1 %.b, label %60, label %71

60:                                               ; preds = %1
  %61 = load ptr, ptr @stderr, align 8, !tbaa !11
  %62 = tail call i64 @fwrite(ptr nonnull @.str.97, i64 20, i64 1, ptr %61) #26
  %63 = load ptr, ptr @stderr, align 8, !tbaa !11
  %64 = tail call i64 @fwrite(ptr nonnull @.str.98, i64 28, i64 1, ptr %63) #26
  %65 = load ptr, ptr @stderr, align 8, !tbaa !11
  %66 = tail call i64 @fwrite(ptr nonnull @.str.99, i64 28, i64 1, ptr %65) #26
  %67 = load ptr, ptr @stderr, align 8, !tbaa !11
  %68 = tail call i64 @fwrite(ptr nonnull @.str.100, i64 33, i64 1, ptr %67) #26
  %69 = load ptr, ptr @stderr, align 8, !tbaa !11
  %70 = tail call i64 @fwrite(ptr nonnull @.str.101, i64 46, i64 1, ptr %69) #26
  br label %71

71:                                               ; preds = %60, %1
  ret void
}